target datalayout = "e-m:e-p270:32:32-p271:32:32-p272:64:64-i64:64-i128:128-f80:128-n8:16:32:64-S128"
target triple = "x86_64-pc-linux-gnu"

; Function Attrs: nounwind uwtable
define internal i32 @rotate_left(i32 noundef %0, i32 noundef %1) #0 {
  %3 = alloca i32, align 4
  %4 = alloca i32, align 4
  %5 = alloca i32, align 4
  store i32 %0, ptr %3, align 4, !tbaa !11
  store i32 %1, ptr %4, align 4, !tbaa !11
  call void @llvm.lifetime.start.p0(i64 4, ptr %5) #8
  store i32 31, ptr %5, align 4, !tbaa !11
  %6 = load i32, ptr %5, align 4, !tbaa !11
  %7 = load i32, ptr %4, align 4, !tbaa !11
  %8 = and i32 %7, %6
  store i32 %8, ptr %4, align 4, !tbaa !11
  %9 = load i32, ptr %3, align 4, !tbaa !11
  %10 = load i32, ptr %4, align 4, !tbaa !11
  %11 = shl i32 %9, %10
  %12 = load i32, ptr %3, align 4, !tbaa !11
  %13 = load i32, ptr %4, align 4, !tbaa !11
  %14 = sub nsw i32 0, %13
  %15 = load i32, ptr %5, align 4, !tbaa !11
  %16 = and i32 %14, %15
  %17 = lshr i32 %12, %16
  %18 = or i32 %11, %17
  call void @llvm.lifetime.end.p0(i64 4, ptr %5) #8
  ret i32 %18
}

; Function Attrs: nounwind uwtable
define internal i32 @murmur3_seeded_v1(i32 noundef %0, ptr noundef %1, i64 noundef %2) #0 {
  %4 = alloca i32, align 4
  %5 = alloca ptr, align 8
  %6 = alloca i64, align 8
  %7 = alloca i32, align 4
  %8 = alloca i32, align 4
  %9 = alloca i32, align 4
  %10 = alloca i32, align 4
  %11 = alloca i32, align 4
  %12 = alloca i32, align 4
  %13 = alloca i32, align 4
  %14 = alloca i32, align 4
  %15 = alloca ptr, align 8
  %16 = alloca i32, align 4
  %17 = alloca i32, align 4
  %18 = alloca i32, align 4
  %19 = alloca i32, align 4
  %20 = alloca i32, align 4
  %21 = alloca i32, align 4
  store i32 %0, ptr %4, align 4, !tbaa !11
  store ptr %1, ptr %5, align 8, !tbaa !37
  store i64 %2, ptr %6, align 8, !tbaa !40
  call void @llvm.lifetime.start.p0(i64 4, ptr %7) #8
  store i32 -862048943, ptr %7, align 4, !tbaa !11
  call void @llvm.lifetime.start.p0(i64 4, ptr %8) #8
  store i32 461845907, ptr %8, align 4, !tbaa !11
  call void @llvm.lifetime.start.p0(i64 4, ptr %9) #8
  store i32 15, ptr %9, align 4, !tbaa !11
  call void @llvm.lifetime.start.p0(i64 4, ptr %10) #8
  store i32 13, ptr %10, align 4, !tbaa !11
  call void @llvm.lifetime.start.p0(i64 4, ptr %11) #8
  store i32 5, ptr %11, align 4, !tbaa !11
  call void @llvm.lifetime.start.p0(i64 4, ptr %12) #8
  store i32 -430675100, ptr %12, align 4, !tbaa !11
  call void @llvm.lifetime.start.p0(i64 4, ptr %13) #8
  call void @llvm.lifetime.start.p0(i64 4, ptr %14) #8
  store i32 0, ptr %14, align 4, !tbaa !11
  call void @llvm.lifetime.start.p0(i64 8, ptr %15) #8
  call void @llvm.lifetime.start.p0(i64 4, ptr %16) #8
  %22 = load i64, ptr %6, align 8, !tbaa !40
  %23 = udiv i64 %22, 4
  %24 = trunc i64 %23 to i32
  store i32 %24, ptr %16, align 4, !tbaa !11
  call void @llvm.lifetime.start.p0(i64 4, ptr %17) #8
  store i32 0, ptr %13, align 4, !tbaa !11
  br label %25

25:                                               ; preds = %84, %3
  %26 = load i32, ptr %13, align 4, !tbaa !11
  %27 = load i32, ptr %16, align 4, !tbaa !11
  %28 = icmp slt i32 %26, %27
  br i1 %28, label %29, label %87

29:                                               ; preds = %25
  call void @llvm.lifetime.start.p0(i64 4, ptr %18) #8
  %30 = load ptr, ptr %5, align 8, !tbaa !37
  %31 = load i32, ptr %13, align 4, !tbaa !11
  %32 = mul nsw i32 4, %31
  %33 = sext i32 %32 to i64
  %34 = getelementptr inbounds i8, ptr %30, i64 %33
  %35 = load i8, ptr %34, align 1, !tbaa !38
  %36 = sext i8 %35 to i32
  store i32 %36, ptr %18, align 4, !tbaa !11
  call void @llvm.lifetime.start.p0(i64 4, ptr %19) #8
  %37 = load ptr, ptr %5, align 8, !tbaa !37
  %38 = load i32, ptr %13, align 4, !tbaa !11
  %39 = mul nsw i32 4, %38
  %40 = add nsw i32 %39, 1
  %41 = sext i32 %40 to i64
  %42 = getelementptr inbounds i8, ptr %37, i64 %41
  %43 = load i8, ptr %42, align 1, !tbaa !38
  %44 = sext i8 %43 to i32
  %45 = shl i32 %44, 8
  store i32 %45, ptr %19, align 4, !tbaa !11
  call void @llvm.lifetime.start.p0(i64 4, ptr %20) #8
  %46 = load ptr, ptr %5, align 8, !tbaa !37
  %47 = load i32, ptr %13, align 4, !tbaa !11
  %48 = mul nsw i32 4, %47
  %49 = add nsw i32 %48, 2
  %50 = sext i32 %49 to i64
  %51 = getelementptr inbounds i8, ptr %46, i64 %50
  %52 = load i8, ptr %51, align 1, !tbaa !38
  %53 = sext i8 %52 to i32
  %54 = shl i32 %53, 16
  store i32 %54, ptr %20, align 4, !tbaa !11
  call void @llvm.lifetime.start.p0(i64 4, ptr %21) #8
  %55 = load ptr, ptr %5, align 8, !tbaa !37
  %56 = load i32, ptr %13, align 4, !tbaa !11
  %57 = mul nsw i32 4, %56
  %58 = add nsw i32 %57, 3
  %59 = sext i32 %58 to i64
  %60 = getelementptr inbounds i8, ptr %55, i64 %59
  %61 = load i8, ptr %60, align 1, !tbaa !38
  %62 = sext i8 %61 to i32
  %63 = shl i32 %62, 24
  store i32 %63, ptr %21, align 4, !tbaa !11
  %64 = load i32, ptr %18, align 4, !tbaa !11
  %65 = load i32, ptr %19, align 4, !tbaa !11
  %66 = or i32 %64, %65
  %67 = load i32, ptr %20, align 4, !tbaa !11
  %68 = or i32 %66, %67
  %69 = load i32, ptr %21, align 4, !tbaa !11
  %70 = or i32 %68, %69
  store i32 %70, ptr %17, align 4, !tbaa !11
  %71 = load i32, ptr %17, align 4, !tbaa !11
  %72 = mul i32 %71, -862048943
  store i32 %72, ptr %17, align 4, !tbaa !11
  %73 = load i32, ptr %17, align 4, !tbaa !11
  %74 = call i32 @rotate_left(i32 noundef %73, i32 noundef 15)
  store i32 %74, ptr %17, align 4, !tbaa !11
  %75 = load i32, ptr %17, align 4, !tbaa !11
  %76 = mul i32 %75, 461845907
  store i32 %76, ptr %17, align 4, !tbaa !11
  %77 = load i32, ptr %17, align 4, !tbaa !11
  %78 = load i32, ptr %4, align 4, !tbaa !11
  %79 = xor i32 %78, %77
  store i32 %79, ptr %4, align 4, !tbaa !11
  %80 = load i32, ptr %4, align 4, !tbaa !11
  %81 = call i32 @rotate_left(i32 noundef %80, i32 noundef 13)
  %82 = mul i32 %81, 5
  %83 = add i32 %82, -430675100
  store i32 %83, ptr %4, align 4, !tbaa !11
  call void @llvm.lifetime.end.p0(i64 4, ptr %21) #8
  call void @llvm.lifetime.end.p0(i64 4, ptr %20) #8
  call void @llvm.lifetime.end.p0(i64 4, ptr %19) #8
  call void @llvm.lifetime.end.p0(i64 4, ptr %18) #8
  br label %84

84:                                               ; preds = %29
  %85 = load i32, ptr %13, align 4, !tbaa !11
  %86 = add nsw i32 %85, 1
  store i32 %86, ptr %13, align 4, !tbaa !11
  br label %25, !llvm.loop !49

87:                                               ; preds = %25
  %88 = load ptr, ptr %5, align 8, !tbaa !37
  %89 = load i32, ptr %16, align 4, !tbaa !11
  %90 = sext i32 %89 to i64
  %91 = mul i64 %90, 4
  %92 = getelementptr inbounds nuw i8, ptr %88, i64 %91
  store ptr %92, ptr %15, align 8, !tbaa !37
  %93 = load i64, ptr %6, align 8, !tbaa !40
  %94 = and i64 %93, 3
  switch i64 %94, label %128 [
    i64 3, label %95
    i64 2, label %103
    i64 1, label %111
  ]

95:                                               ; preds = %87
  %96 = load ptr, ptr %15, align 8, !tbaa !37
  %97 = getelementptr inbounds i8, ptr %96, i64 2
  %98 = load i8, ptr %97, align 1, !tbaa !38
  %99 = sext i8 %98 to i32
  %100 = shl i32 %99, 16
  %101 = load i32, ptr %14, align 4, !tbaa !11
  %102 = xor i32 %101, %100
  store i32 %102, ptr %14, align 4, !tbaa !11
  br label %103

103:                                              ; preds = %87, %95
  %104 = load ptr, ptr %15, align 8, !tbaa !37
  %105 = getelementptr inbounds i8, ptr %104, i64 1
  %106 = load i8, ptr %105, align 1, !tbaa !38
  %107 = sext i8 %106 to i32
  %108 = shl i32 %107, 8
  %109 = load i32, ptr %14, align 4, !tbaa !11
  %110 = xor i32 %109, %108
  store i32 %110, ptr %14, align 4, !tbaa !11
  br label %111

111:                                              ; preds = %87, %103
  %112 = load ptr, ptr %15, align 8, !tbaa !37
  %113 = getelementptr inbounds i8, ptr %112, i64 0
  %114 = load i8, ptr %113, align 1, !tbaa !38
  %115 = sext i8 %114 to i32
  %116 = shl i32 %115, 0
  %117 = load i32, ptr %14, align 4, !tbaa !11
  %118 = xor i32 %117, %116
  store i32 %118, ptr %14, align 4, !tbaa !11
  %119 = load i32, ptr %14, align 4, !tbaa !11
  %120 = mul i32 %119, -862048943
  store i32 %120, ptr %14, align 4, !tbaa !11
  %121 = load i32, ptr %14, align 4, !tbaa !11
  %122 = call i32 @rotate_left(i32 noundef %121, i32 noundef 15)
  store i32 %122, ptr %14, align 4, !tbaa !11
  %123 = load i32, ptr %14, align 4, !tbaa !11
  %124 = mul i32 %123, 461845907
  store i32 %124, ptr %14, align 4, !tbaa !11
  %125 = load i32, ptr %14, align 4, !tbaa !11
  %126 = load i32, ptr %4, align 4, !tbaa !11
  %127 = xor i32 %126, %125
  store i32 %127, ptr %4, align 4, !tbaa !11
  br label %128

128:                                              ; preds = %87, %111
  %129 = load i64, ptr %6, align 8, !tbaa !40
  %130 = trunc i64 %129 to i32
  %131 = load i32, ptr %4, align 4, !tbaa !11
  %132 = xor i32 %131, %130
  store i32 %132, ptr %4, align 4, !tbaa !11
  %133 = load i32, ptr %4, align 4, !tbaa !11
  %134 = lshr i32 %133, 16
  %135 = load i32, ptr %4, align 4, !tbaa !11
  %136 = xor i32 %135, %134
  store i32 %136, ptr %4, align 4, !tbaa !11
  %137 = load i32, ptr %4, align 4, !tbaa !11
  %138 = mul i32 %137, -2048144789
  store i32 %138, ptr %4, align 4, !tbaa !11
  %139 = load i32, ptr %4, align 4, !tbaa !11
  %140 = lshr i32 %139, 13
  %141 = load i32, ptr %4, align 4, !tbaa !11
  %142 = xor i32 %141, %140
  store i32 %142, ptr %4, align 4, !tbaa !11
  %143 = load i32, ptr %4, align 4, !tbaa !11
  %144 = mul i32 %143, -1028477387
  store i32 %144, ptr %4, align 4, !tbaa !11
  %145 = load i32, ptr %4, align 4, !tbaa !11
  %146 = lshr i32 %145, 16
  %147 = load i32, ptr %4, align 4, !tbaa !11
  %148 = xor i32 %147, %146
  store i32 %148, ptr %4, align 4, !tbaa !11
  %149 = load i32, ptr %4, align 4, !tbaa !11
  call void @llvm.lifetime.end.p0(i64 4, ptr %17) #8
  call void @llvm.lifetime.end.p0(i64 4, ptr %16) #8
  call void @llvm.lifetime.end.p0(i64 8, ptr %15) #8
  call void @llvm.lifetime.end.p0(i64 4, ptr %14) #8
  call void @llvm.lifetime.end.p0(i64 4, ptr %13) #8
  call void @llvm.lifetime.end.p0(i64 4, ptr %12) #8
  call void @llvm.lifetime.end.p0(i64 4, ptr %11) #8
  call void @llvm.lifetime.end.p0(i64 4, ptr %10) #8
  call void @llvm.lifetime.end.p0(i64 4, ptr %9) #8
  call void @llvm.lifetime.end.p0(i64 4, ptr %8) #8
  call void @llvm.lifetime.end.p0(i64 4, ptr %7) #8
  ret i32 %149
}