; Function Attrs: nofree norecurse nosync nounwind memory(argmem: read) uwtable
define internal fastcc i32 @murmur3_seeded_v1(i32 noundef range(i32 691726191, 2120511021) %0, ptr noundef readonly captures(none) %1, i64 noundef %2) unnamed_addr #3 {
  %4 = lshr i64 %2, 2
  %5 = trunc i64 %4 to i32
  %6 = icmp sgt i32 %5, 0
  br i1 %6, label %.lr.ph.preheader, label %._crit_edge

.lr.ph.preheader:                                 ; preds = %3
  %wide.trip.count = and i64 %4, 2147483647
  br label %.lr.ph

.lr.ph:                                           ; preds = %.lr.ph.preheader, %.lr.ph
  %indvars.iv = phi i64 [ 0, %.lr.ph.preheader ], [ %indvars.iv.next, %.lr.ph ]
  %.051 = phi i32 [ %0, %.lr.ph.preheader ], [ %37, %.lr.ph ]
  %7 = shl nsw i64 %indvars.iv, 2
  %8 = getelementptr inbounds nuw i8, ptr %1, i64 %7
  %9 = load i8, ptr %8, align 1, !tbaa !22
  %10 = sext i8 %9 to i32
  %11 = or disjoint i64 %7, 1
  %12 = getelementptr inbounds nuw i8, ptr %1, i64 %11
  %13 = load i8, ptr %12, align 1, !tbaa !22
  %14 = sext i8 %13 to i32
  %15 = shl nsw i32 %14, 8
  %16 = or disjoint i64 %7, 2
  %17 = getelementptr inbounds nuw i8, ptr %1, i64 %16
  %18 = load i8, ptr %17, align 1, !tbaa !22
  %19 = sext i8 %18 to i32
  %20 = shl nsw i32 %19, 16
  %21 = or disjoint i64 %7, 3
  %22 = getelementptr inbounds nuw i8, ptr %1, i64 %21
  %23 = load i8, ptr %22, align 1, !tbaa !22
  %24 = sext i8 %23 to i32
  %25 = shl nsw i32 %24, 24
  %26 = or i32 %15, %10
  %27 = or i32 %26, %20
  %28 = or i32 %27, %25
  %29 = mul i32 %28, -862048943
  %30 = mul i32 %28, 380141568
  %31 = lshr i32 %29, 17
  %32 = or disjoint i32 %31, %30
  %33 = mul i32 %32, 461845907
  %34 = xor i32 %33, %.051
  %35 = tail call i32 @llvm.fshl.i32(i32 %34, i32 %34, i32 13)
  %36 = mul i32 %35, 5
  %37 = add i32 %36, -430675100
  %indvars.iv.next = add nuw nsw i64 %indvars.iv, 1
  %exitcond.not = icmp eq i64 %indvars.iv.next, %wide.trip.count
  br i1 %exitcond.not, label %._crit_edge, label %.lr.ph, !llvm.loop !40

._crit_edge:                                      ; preds = %.lr.ph, %3
  %.0.lcssa = phi i32 [ %0, %3 ], [ %37, %.lr.ph ]
  %sext = shl i64 %4, 32
  %38 = ashr exact i64 %sext, 30
  %39 = getelementptr inbounds nuw i8, ptr %1, i64 %38
  %40 = and i64 %2, 3
  switch i64 %40, label %default.unreachable53 [
    i64 3, label %41
    i64 2, label %46
    i64 1, label %52
    i64 0, label %62
  ]

41:                                               ; preds = %._crit_edge
  %42 = getelementptr inbounds nuw i8, ptr %39, i64 2
  %43 = load i8, ptr %42, align 1, !tbaa !22
  %44 = sext i8 %43 to i32
  %45 = shl nsw i32 %44, 16
  br label %46

46:                                               ; preds = %._crit_edge, %41
  %.047 = phi i32 [ 0, %._crit_edge ], [ %45, %41 ]
  %47 = getelementptr inbounds nuw i8, ptr %39, i64 1
  %48 = load i8, ptr %47, align 1, !tbaa !22
  %49 = sext i8 %48 to i32
  %50 = shl nsw i32 %49, 8
  %51 = xor i32 %50, %.047
  br label %52

52:                                               ; preds = %._crit_edge, %46
  %.148 = phi i32 [ 0, %._crit_edge ], [ %51, %46 ]
  %53 = load i8, ptr %39, align 1, !tbaa !22
  %54 = sext i8 %53 to i32
  %55 = xor i32 %.148, %54
  %56 = mul i32 %55, -862048943
  %57 = mul i32 %55, 380141568
  %58 = lshr i32 %56, 17
  %59 = or disjoint i32 %58, %57
  %60 = mul i32 %59, 461845907
  %61 = xor i32 %60, %.0.lcssa
  br label %62

default.unreachable53:                            ; preds = %._crit_edge
  unreachable

62:                                               ; preds = %._crit_edge, %52
  %.1 = phi i32 [ %.0.lcssa, %._crit_edge ], [ %61, %52 ]
  %63 = trunc i64 %2 to i32
  %64 = xor i32 %.1, %63
  %65 = lshr i32 %64, 16
  %66 = xor i32 %65, %64
  %67 = mul i32 %66, -2048144789
  %68 = lshr i32 %67, 13
  %69 = xor i32 %68, %67
  %70 = mul i32 %69, -1028477387
  %71 = lshr i32 %70, 16
  %72 = xor i32 %71, %70
  ret i32 %72
}